target datalayout = "e-m:e-p270:32:32-p271:32:32-p272:64:64-i64:64-i128:128-f80:128-n8:16:32:64-S128"
target triple = "x86_64-pc-linux-gnu"

%struct.UCHARBUF = type { ptr, ptr, ptr, i32, i32, i32, ptr, ptr, i8, i8 }

; Function Attrs: inlinehint mustprogress nounwind uwtable
define internal noundef signext i8 @_ZL9U_SUCCESS10UErrorCode(i32 noundef %0) #4 {
  %2 = alloca i32, align 4
  store i32 %0, ptr %2, align 4, !tbaa !24
  %3 = load i32, ptr %2, align 4, !tbaa !24
  %4 = icmp sle i32 %3, 0
  %5 = zext i1 %4 to i8
  ret i8 %5
}

; Function Attrs: inlinehint mustprogress nounwind uwtable
define internal noundef signext i8 @_ZL9U_FAILURE10UErrorCode(i32 noundef %0) #4 {
  %2 = alloca i32, align 4
  store i32 %0, ptr %2, align 4, !tbaa !24
  %3 = load i32, ptr %2, align 4, !tbaa !24
  %4 = icmp sgt i32 %3, 0
  %5 = zext i1 %4 to i8
  ret i8 %5
}

; Function Attrs: mustprogress uwtable
define void @ucbuf_rewind(ptr noundef %0, ptr noundef %1) #0 {
  %3 = alloca ptr, align 8
  %4 = alloca ptr, align 8
  %5 = alloca [1 x i16], align 2
  %6 = alloca ptr, align 8
  %7 = alloca [8 x i8], align 1
  %8 = alloca ptr, align 8
  %9 = alloca i32, align 4
  store ptr %0, ptr %3, align 8, !tbaa !28
  store ptr %1, ptr %4, align 8, !tbaa !15
  %10 = load ptr, ptr %4, align 8, !tbaa !15
  %11 = icmp eq ptr %10, null
  br i1 %11, label %17, label %12

12:                                               ; preds = %2
  %13 = load ptr, ptr %4, align 8, !tbaa !15
  %14 = load i32, ptr %13, align 4, !tbaa !24
  %15 = call noundef signext i8 @_ZL9U_FAILURE10UErrorCode(i32 noundef %14)
  %16 = icmp ne i8 %15, 0
  br i1 %16, label %17, label %18

17:                                               ; preds = %12, %2
  br label %103

18:                                               ; preds = %12
  %19 = load ptr, ptr %3, align 8, !tbaa !28
  %20 = icmp ne ptr %19, null
  br i1 %20, label %21, label %103

21:                                               ; preds = %18
  %22 = load ptr, ptr %3, align 8, !tbaa !28
  %23 = getelementptr inbounds nuw %struct.UCHARBUF, ptr %22, i32 0, i32 0
  %24 = load ptr, ptr %23, align 8, !tbaa !34
  %25 = load ptr, ptr %3, align 8, !tbaa !28
  %26 = getelementptr inbounds nuw %struct.UCHARBUF, ptr %25, i32 0, i32 1
  store ptr %24, ptr %26, align 8, !tbaa !30
  %27 = load ptr, ptr %3, align 8, !tbaa !28
  %28 = getelementptr inbounds nuw %struct.UCHARBUF, ptr %27, i32 0, i32 0
  %29 = load ptr, ptr %28, align 8, !tbaa !34
  %30 = load ptr, ptr %3, align 8, !tbaa !28
  %31 = getelementptr inbounds nuw %struct.UCHARBUF, ptr %30, i32 0, i32 2
  store ptr %29, ptr %31, align 8, !tbaa !32
  %32 = load ptr, ptr %3, align 8, !tbaa !28
  %33 = getelementptr inbounds nuw %struct.UCHARBUF, ptr %32, i32 0, i32 6
  %34 = load ptr, ptr %33, align 8, !tbaa !36
  call void @T_FileStream_rewind(ptr noundef %34)
  %35 = load ptr, ptr %3, align 8, !tbaa !28
  %36 = getelementptr inbounds nuw %struct.UCHARBUF, ptr %35, i32 0, i32 6
  %37 = load ptr, ptr %36, align 8, !tbaa !36
  %38 = call i32 @T_FileStream_size(ptr noundef %37)
  %39 = load ptr, ptr %3, align 8, !tbaa !28
  %40 = getelementptr inbounds nuw %struct.UCHARBUF, ptr %39, i32 0, i32 5
  %41 = load i32, ptr %40, align 8, !tbaa !43
  %42 = sub nsw i32 %38, %41
  %43 = load ptr, ptr %3, align 8, !tbaa !28
  %44 = getelementptr inbounds nuw %struct.UCHARBUF, ptr %43, i32 0, i32 4
  store i32 %42, ptr %44, align 4, !tbaa !33
  %45 = load ptr, ptr %3, align 8, !tbaa !28
  %46 = getelementptr inbounds nuw %struct.UCHARBUF, ptr %45, i32 0, i32 7
  %47 = load ptr, ptr %46, align 8, !tbaa !37
  call void @ucnv_resetToUnicode_77(ptr noundef %47)
  %48 = load ptr, ptr %3, align 8, !tbaa !28
  %49 = getelementptr inbounds nuw %struct.UCHARBUF, ptr %48, i32 0, i32 5
  %50 = load i32, ptr %49, align 8, !tbaa !43
  %51 = icmp sgt i32 %50, 0
  br i1 %51, label %52, label %102

52:                                               ; preds = %21
  call void @llvm.lifetime.start.p0(i64 2, ptr %5) #10
  call void @llvm.memset.p0.i64(ptr align 2 %5, i8 0, i64 2, i1 false)
  call void @llvm.lifetime.start.p0(i64 8, ptr %6) #10
  call void @llvm.lifetime.start.p0(i64 8, ptr %7) #10
  call void @llvm.lifetime.start.p0(i64 8, ptr %8) #10
  call void @llvm.lifetime.start.p0(i64 4, ptr %9) #10
  %53 = load ptr, ptr %3, align 8, !tbaa !28
  %54 = getelementptr inbounds nuw %struct.UCHARBUF, ptr %53, i32 0, i32 6
  %55 = load ptr, ptr %54, align 8, !tbaa !36
  %56 = getelementptr inbounds [8 x i8], ptr %7, i64 0, i64 0
  %57 = load ptr, ptr %3, align 8, !tbaa !28
  %58 = getelementptr inbounds nuw %struct.UCHARBUF, ptr %57, i32 0, i32 5
  %59 = load i32, ptr %58, align 8, !tbaa !43
  %60 = call i32 @T_FileStream_read(ptr noundef %55, ptr noundef %56, i32 noundef %59)
  store i32 %60, ptr %9, align 4, !tbaa !16
  %61 = getelementptr inbounds [1 x i16], ptr %5, i64 0, i64 0
  store ptr %61, ptr %6, align 8, !tbaa !22
  %62 = getelementptr inbounds [8 x i8], ptr %7, i64 0, i64 0
  store ptr %62, ptr %8, align 8, !tbaa !18
  %63 = load ptr, ptr %3, align 8, !tbaa !28
  %64 = getelementptr inbounds nuw %struct.UCHARBUF, ptr %63, i32 0, i32 7
  %65 = load ptr, ptr %64, align 8, !tbaa !37
  %66 = getelementptr inbounds [1 x i16], ptr %5, i64 0, i64 0
  %67 = getelementptr inbounds i16, ptr %66, i64 1
  %68 = getelementptr inbounds [8 x i8], ptr %7, i64 0, i64 0
  %69 = load i32, ptr %9, align 4, !tbaa !16
  %70 = sext i32 %69 to i64
  %71 = getelementptr inbounds i8, ptr %68, i64 %70
  %72 = load ptr, ptr %4, align 8, !tbaa !15
  call void @ucnv_toUnicode_77(ptr noundef %65, ptr noundef %6, ptr noundef %67, ptr noundef %8, ptr noundef %71, ptr noundef null, i8 noundef signext 0, ptr noundef %72)
  %73 = load ptr, ptr %4, align 8, !tbaa !15
  %74 = load i32, ptr %73, align 4, !tbaa !24
  %75 = icmp eq i32 %74, 15
  br i1 %75, label %76, label %78

76:                                               ; preds = %52
  %77 = load ptr, ptr %4, align 8, !tbaa !15
  store i32 0, ptr %77, align 4, !tbaa !24
  br label %78

78:                                               ; preds = %76, %52
  %79 = load ptr, ptr %4, align 8, !tbaa !15
  %80 = load i32, ptr %79, align 4, !tbaa !24
  %81 = call noundef signext i8 @_ZL9U_SUCCESS10UErrorCode(i32 noundef %80)
  %82 = icmp ne i8 %81, 0
  br i1 %82, label %83, label %101

83:                                               ; preds = %78
  %84 = load i32, ptr %9, align 4, !tbaa !16
  %85 = load ptr, ptr %3, align 8, !tbaa !28
  %86 = getelementptr inbounds nuw %struct.UCHARBUF, ptr %85, i32 0, i32 5
  %87 = load i32, ptr %86, align 8, !tbaa !43
  %88 = icmp ne i32 %84, %87
  br i1 %88, label %99, label %89

89:                                               ; preds = %83
  %90 = load ptr, ptr %6, align 8, !tbaa !22
  %91 = getelementptr inbounds [1 x i16], ptr %5, i64 0, i64 0
  %92 = getelementptr inbounds i16, ptr %91, i64 1
  %93 = icmp ne ptr %90, %92
  br i1 %93, label %99, label %94

94:                                               ; preds = %89
  %95 = getelementptr inbounds [1 x i16], ptr %5, i64 0, i64 0
  %96 = load i16, ptr %95, align 2, !tbaa !26
  %97 = zext i16 %96 to i32
  %98 = icmp ne i32 %97, 65279
  br i1 %98, label %99, label %101

99:                                               ; preds = %94, %89, %83
  %100 = load ptr, ptr %4, align 8, !tbaa !15
  store i32 5, ptr %100, align 4, !tbaa !24
  br label %101

101:                                              ; preds = %99, %94, %78
  call void @llvm.lifetime.end.p0(i64 4, ptr %9) #10
  call void @llvm.lifetime.end.p0(i64 8, ptr %8) #10
  call void @llvm.lifetime.end.p0(i64 8, ptr %7) #10
  call void @llvm.lifetime.end.p0(i64 8, ptr %6) #10
  call void @llvm.lifetime.end.p0(i64 2, ptr %5) #10
  br label %102

102:                                              ; preds = %101, %21
  br label %103

103:                                              ; preds = %17, %102, %18
  ret void
}