; Function Attrs: mustprogress uwtable
define void @ucbuf_rewind(ptr noundef %0, ptr noundef %1) local_unnamed_addr #0 {
  %3 = alloca [1 x i16], align 2
  %4 = alloca ptr, align 8
  %5 = alloca [8 x i8], align 1
  %6 = alloca ptr, align 8
  %7 = icmp eq ptr %1, null
  br i1 %7, label %48, label %8

8:                                                ; preds = %2
  %9 = load i32, ptr %1, align 4, !tbaa !14
  %10 = icmp slt i32 %9, 1
  %11 = icmp ne ptr %0, null
  %or.cond = and i1 %11, %10
  br i1 %or.cond, label %12, label %48

12:                                               ; preds = %8
  %13 = load ptr, ptr %0, align 8, !tbaa !23
  %14 = getelementptr inbounds nuw i8, ptr %0, i64 8
  store ptr %13, ptr %14, align 8, !tbaa !16
  %15 = getelementptr inbounds nuw i8, ptr %0, i64 16
  store ptr %13, ptr %15, align 8, !tbaa !19
  %16 = getelementptr inbounds nuw i8, ptr %0, i64 40
  %17 = load ptr, ptr %16, align 8, !tbaa !25
  tail call void @T_FileStream_rewind(ptr noundef %17)
  %18 = load ptr, ptr %16, align 8, !tbaa !25
  %19 = tail call i32 @T_FileStream_size(ptr noundef %18)
  %20 = getelementptr inbounds nuw i8, ptr %0, i64 32
  %21 = load i32, ptr %20, align 8, !tbaa !32
  %22 = sub nsw i32 %19, %21
  %23 = getelementptr inbounds nuw i8, ptr %0, i64 28
  store i32 %22, ptr %23, align 4, !tbaa !20
  %24 = getelementptr inbounds nuw i8, ptr %0, i64 48
  %25 = load ptr, ptr %24, align 8, !tbaa !26
  tail call void @ucnv_resetToUnicode_77(ptr noundef %25)
  %26 = load i32, ptr %20, align 8, !tbaa !32
  %27 = icmp sgt i32 %26, 0
  br i1 %27, label %28, label %48

28:                                               ; preds = %12
  call void @llvm.lifetime.start.p0(i64 2, ptr nonnull %3) #15
  store i16 0, ptr %3, align 2
  call void @llvm.lifetime.start.p0(i64 8, ptr nonnull %4) #15
  call void @llvm.lifetime.start.p0(i64 8, ptr nonnull %5) #15
  call void @llvm.lifetime.start.p0(i64 8, ptr nonnull %6) #15
  %29 = load ptr, ptr %16, align 8, !tbaa !25
  %30 = call i32 @T_FileStream_read(ptr noundef %29, ptr noundef nonnull %5, i32 noundef %26)
  store ptr %3, ptr %4, align 8, !tbaa !12
  store ptr %5, ptr %6, align 8, !tbaa !3
  %31 = load ptr, ptr %24, align 8, !tbaa !26
  %32 = getelementptr inbounds nuw i8, ptr %3, i64 2
  %33 = sext i32 %30 to i64
  %34 = getelementptr inbounds i8, ptr %5, i64 %33
  call void @ucnv_toUnicode_77(ptr noundef %31, ptr noundef nonnull %4, ptr noundef nonnull %32, ptr noundef nonnull %6, ptr noundef nonnull %34, ptr noundef null, i8 noundef signext 0, ptr noundef nonnull %1)
  %35 = load i32, ptr %1, align 4, !tbaa !14
  %36 = icmp eq i32 %35, 15
  br i1 %36, label %.thread, label %37

.thread:                                          ; preds = %28
  store i32 0, ptr %1, align 4, !tbaa !14
  br label %39

37:                                               ; preds = %28
  %38 = icmp sgt i32 %35, 0
  br i1 %38, label %47, label %39

39:                                               ; preds = %.thread, %37
  %40 = load i32, ptr %20, align 8, !tbaa !32
  %41 = icmp ne i32 %30, %40
  %42 = load ptr, ptr %4, align 8
  %43 = icmp ne ptr %42, %32
  %or.cond5 = select i1 %41, i1 true, i1 %43
  %44 = load i16, ptr %3, align 2
  %45 = icmp ne i16 %44, -257
  %or.cond9 = select i1 %or.cond5, i1 true, i1 %45
  br i1 %or.cond9, label %46, label %47

46:                                               ; preds = %39
  store i32 5, ptr %1, align 4, !tbaa !14
  br label %47

47:                                               ; preds = %39, %46, %37
  call void @llvm.lifetime.end.p0(i64 8, ptr nonnull %6) #15
  call void @llvm.lifetime.end.p0(i64 8, ptr nonnull %5) #15
  call void @llvm.lifetime.end.p0(i64 8, ptr nonnull %4) #15
  call void @llvm.lifetime.end.p0(i64 2, ptr nonnull %3) #15
  br label %48

48:                                               ; preds = %12, %47, %2, %8
  ret void
}